; Function Attrs: mustprogress nofree norecurse nosync nounwind willreturn memory(read, inaccessiblemem: none) uwtable
define internal noundef range(i32 -32768, 32768) i32 @_ZL23ucnvsel_count_encodingsP12UEnumerationP10UErrorCode(ptr noundef readonly captures(none) %0, ptr noundef readonly captures(none) %1) #9 {
  %3 = load i32, ptr %1, align 4, !tbaa !3
  %4 = icmp slt i32 %3, 1
  br i1 %4, label %5, label %11

5:                                                ; preds = %2
  %6 = getelementptr inbounds nuw i8, ptr %0, i64 8
  %7 = load ptr, ptr %6, align 8, !tbaa !71
  %8 = getelementptr inbounds nuw i8, ptr %7, i64 8
  %9 = load i16, ptr %8, align 8, !tbaa !65
  %10 = sext i16 %9 to i32
  br label %11

11:                                               ; preds = %2, %5
  %.0 = phi i32 [ %10, %5 ], [ 0, %2 ]
  ret i32 %.0
}